; Function Attrs: mustprogress uwtable
define hidden void @_ZN3sat12local_search5unsatEj(ptr noundef nonnull align 8 dereferenceable(232) %0, i32 noundef %1) local_unnamed_addr #3 align 2 {
  %3 = getelementptr inbounds nuw i8, ptr %0, i64 96
  %4 = load ptr, ptr %3, align 8, !tbaa !9
  %5 = icmp eq ptr %4, null
  br i1 %5, label %_ZNK6vectorIjLb0EjE4sizeEv.exit.thread, label %10

_ZNK6vectorIjLb0EjE4sizeEv.exit.thread:           ; preds = %2
  %6 = getelementptr inbounds nuw i8, ptr %0, i64 104
  %7 = load ptr, ptr %6, align 8, !tbaa !9
  %8 = zext i32 %1 to i64
  %9 = getelementptr inbounds nuw i32, ptr %7, i64 %8
  store i32 0, ptr %9, align 4, !tbaa !13
  br label %20

10:                                               ; preds = %2
  %11 = getelementptr inbounds i8, ptr %4, i64 -4
  %12 = load i32, ptr %11, align 4, !tbaa !13
  %13 = getelementptr inbounds nuw i8, ptr %0, i64 104
  %14 = load ptr, ptr %13, align 8, !tbaa !9
  %15 = zext i32 %1 to i64
  %16 = getelementptr inbounds nuw i32, ptr %14, i64 %15
  store i32 %12, ptr %16, align 4, !tbaa !13
  %17 = getelementptr inbounds i8, ptr %4, i64 -8
  %18 = load i32, ptr %17, align 4, !tbaa !13
  %19 = icmp eq i32 %12, %18
  br i1 %19, label %20, label %_ZN6vectorIjLb0EjE9push_backERKj.exit

20:                                               ; preds = %_ZNK6vectorIjLb0EjE4sizeEv.exit.thread, %10
  tail call void @_ZN6vectorIjLb0EjE13expand_vectorEv(ptr noundef nonnull align 8 dereferenceable(8) %3)
  %.pre.i = load ptr, ptr %3, align 8, !tbaa !9
  %.phi.trans.insert.i = getelementptr inbounds i8, ptr %.pre.i, i64 -4
  %.pre2.i = load i32, ptr %.phi.trans.insert.i, align 4, !tbaa !13
  br label %_ZN6vectorIjLb0EjE9push_backERKj.exit

_ZN6vectorIjLb0EjE9push_backERKj.exit:            ; preds = %10, %20
  %21 = phi i32 [ %.pre2.i, %20 ], [ %12, %10 ]
  %22 = phi ptr [ %.pre.i, %20 ], [ %4, %10 ]
  %23 = getelementptr inbounds i8, ptr %22, i64 -4
  %24 = zext i32 %21 to i64
  %25 = getelementptr inbounds nuw i32, ptr %22, i64 %24
  store i32 %1, ptr %25, align 4, !tbaa !13
  %26 = add i32 %21, 1
  store i32 %26, ptr %23, align 4, !tbaa !13
  ret void
}